target datalayout = "e-m:e-p270:32:32-p271:32:32-p272:64:64-i64:64-i128:128-f80:128-n8:16:32:64-S128"
target triple = "x86_64-pc-linux-gnu"

%struct.rb_process_status = type { i32, i32, i32 }
%struct.child_handler_disabler_state = type { %struct.__sigset_t }
%struct.__sigset_t = type { [16 x i64] }

@rb_stdout = external global i64, align 8
@rb_stderr = external global i64, align 8
@.str.209 = private unnamed_addr constant [11 x i8] c"sigfillset\00", align 1
@.str.210 = private unnamed_addr constant [16 x i8] c"pthread_sigmask\00", align 1
@cached_pid = internal global i32 0, align 4

; Function Attrs: nounwind sspstrong uwtable
define internal void @before_exec_async_signal_safe() #0 {
  ret void
}

; Function Attrs: nounwind sspstrong uwtable
define internal void @before_exec_non_async_signal_safe() #0 {
  call void @rb_thread_stop_timer_thread()
  ret void
}

; Function Attrs: nounwind sspstrong uwtable
define internal void @after_exec() #0 {
  call void @rb_thread_reset_timer_thread()
  call void @rb_thread_start_timer_thread()
  ret void
}

; Function Attrs: nounwind sspstrong uwtable
define internal void @clear_pid_cache() #0 {
  store i32 0, ptr @cached_pid, align 4, !tbaa !34
  ret void
}

; Function Attrs: nounwind sspstrong uwtable
define internal void @before_exec() #0 {
  call void @before_exec_non_async_signal_safe()
  call void @before_exec_async_signal_safe()
  ret void
}

; Function Attrs: nounwind sspstrong uwtable
define internal i32 @handle_fork_error(i32 noundef %0, ptr noundef %1, ptr noundef %2, ptr noundef %3) #0 {
  %5 = alloca i32, align 4
  %6 = alloca i32, align 4
  %7 = alloca ptr, align 8
  %8 = alloca ptr, align 8
  %9 = alloca ptr, align 8
  %10 = alloca i32, align 4
  %11 = alloca i32, align 4
  store i32 %0, ptr %6, align 4, !tbaa !34
  store ptr %1, ptr %7, align 8, !tbaa !36
  store ptr %2, ptr %8, align 8, !tbaa !60
  store ptr %3, ptr %9, align 8, !tbaa !60
  call void @llvm.lifetime.start.p0(i64 4, ptr %10) #27
  store i32 0, ptr %10, align 4, !tbaa !34
  %12 = load i32, ptr %6, align 4, !tbaa !34
  switch i32 %12, label %44 [
    i32 12, label %13
    i32 11, label %23
  ]

13:                                               ; preds = %4
  %14 = load ptr, ptr %9, align 8, !tbaa !60
  %15 = load volatile i32, ptr %14, align 4, !tbaa !34
  %16 = add i32 %15, -1
  store volatile i32 %16, ptr %14, align 4, !tbaa !34
  %17 = icmp sgt i32 %15, 0
  br i1 %17, label %18, label %22

18:                                               ; preds = %13
  %19 = call i32 @rb_during_gc() #29
  %20 = icmp ne i32 %19, 0
  br i1 %20, label %22, label %21

21:                                               ; preds = %18
  call void @rb_gc()
  store i32 0, ptr %5, align 4
  store i32 1, ptr %11, align 4
  br label %67

22:                                               ; preds = %18, %13
  br label %44

23:                                               ; preds = %4
  %24 = load ptr, ptr %7, align 8, !tbaa !36
  %25 = icmp ne ptr %24, null
  br i1 %25, label %30, label %26

26:                                               ; preds = %23
  %27 = load ptr, ptr %8, align 8, !tbaa !60
  %28 = icmp ne ptr %27, null
  br i1 %28, label %30, label %29

29:                                               ; preds = %26
  call void @rb_thread_sleep(i32 noundef 1)
  store i32 0, ptr %5, align 4
  store i32 1, ptr %11, align 4
  br label %67

30:                                               ; preds = %26, %23
  %31 = call i64 @rb_protect(ptr noundef @rb_thread_sleep_that_takes_VALUE_as_sole_argument, i64 noundef 3, ptr noundef %10)
  %32 = load ptr, ptr %7, align 8, !tbaa !36
  %33 = icmp ne ptr %32, null
  br i1 %33, label %34, label %38

34:                                               ; preds = %30
  %35 = load i32, ptr %10, align 4, !tbaa !34
  %36 = load ptr, ptr %7, align 8, !tbaa !36
  %37 = getelementptr inbounds nuw %struct.rb_process_status, ptr %36, i32 0, i32 1
  store i32 %35, ptr %37, align 4, !tbaa !40
  br label %38

38:                                               ; preds = %34, %30
  %39 = load i32, ptr %10, align 4, !tbaa !34
  %40 = icmp ne i32 %39, 0
  br i1 %40, label %42, label %41

41:                                               ; preds = %38
  store i32 0, ptr %5, align 4
  store i32 1, ptr %11, align 4
  br label %67

42:                                               ; preds = %38
  br label %43

43:                                               ; preds = %42
  br label %44

44:                                               ; preds = %4, %43, %22
  %45 = load ptr, ptr %8, align 8, !tbaa !60
  %46 = icmp ne ptr %45, null
  br i1 %46, label %47, label %58

47:                                               ; preds = %44
  %48 = load ptr, ptr %8, align 8, !tbaa !60
  %49 = getelementptr i32, ptr %48, i64 0
  %50 = load i32, ptr %49, align 4, !tbaa !34
  %51 = call i32 @close(i32 noundef %50)
  %52 = load ptr, ptr %8, align 8, !tbaa !60
  %53 = getelementptr i32, ptr %52, i64 1
  %54 = load i32, ptr %53, align 4, !tbaa !34
  %55 = call i32 @close(i32 noundef %54)
  %56 = load i32, ptr %6, align 4, !tbaa !34
  %57 = call ptr @rb_errno_ptr()
  store i32 %56, ptr %57, align 4, !tbaa !34
  br label %58

58:                                               ; preds = %47, %44
  %59 = load i32, ptr %10, align 4, !tbaa !34
  %60 = icmp ne i32 %59, 0
  br i1 %60, label %61, label %66

61:                                               ; preds = %58
  %62 = load ptr, ptr %7, align 8, !tbaa !36
  %63 = icmp ne ptr %62, null
  br i1 %63, label %66, label %64

64:                                               ; preds = %61
  %65 = load i32, ptr %10, align 4, !tbaa !34
  call void @rb_jump_tag(i32 noundef %65) #30
  unreachable

66:                                               ; preds = %61, %58
  store i32 -1, ptr %5, align 4
  store i32 1, ptr %11, align 4
  br label %67

67:                                               ; preds = %66, %41, %29, %21
  call void @llvm.lifetime.end.p0(i64 4, ptr %10) #27
  %68 = load i32, ptr %5, align 4
  ret i32 %68
}

; Function Attrs: nounwind sspstrong uwtable
define internal void @after_fork_ruby(i32 noundef %0) #0 {
  %2 = alloca i32, align 4
  store i32 %0, ptr %2, align 4, !tbaa !34
  %3 = load i32, ptr %2, align 4, !tbaa !34
  call void @rb_gc_after_fork(i32 noundef %3)
  %4 = load i32, ptr %2, align 4, !tbaa !34
  %5 = icmp eq i32 %4, 0
  br i1 %5, label %6, label %7

6:                                                ; preds = %1
  call void @clear_pid_cache()
  call void @rb_thread_atfork()
  br label %8

7:                                                ; preds = %1
  call void @after_exec()
  br label %8

8:                                                ; preds = %7, %6
  ret void
}

; Function Attrs: nounwind sspstrong uwtable
define internal void @disable_child_handler_fork_parent(ptr noundef %0) #0 {
  %2 = alloca ptr, align 8
  %3 = alloca i32, align 4
  store ptr %0, ptr %2, align 8, !tbaa !148
  call void @llvm.lifetime.start.p0(i64 4, ptr %3) #27
  %4 = load ptr, ptr %2, align 8, !tbaa !148
  %5 = getelementptr inbounds nuw %struct.child_handler_disabler_state, ptr %4, i32 0, i32 0
  %6 = call i32 @pthread_sigmask(i32 noundef 2, ptr noundef %5, ptr noundef null) #27
  store i32 %6, ptr %3, align 4, !tbaa !34
  %7 = load i32, ptr %3, align 4, !tbaa !34
  %8 = icmp ne i32 %7, 0
  br i1 %8, label %9, label %11

9:                                                ; preds = %1
  %10 = load i32, ptr %3, align 4, !tbaa !34
  call void @rb_syserr_fail(i32 noundef %10, ptr noundef @.str.210) #30
  unreachable

11:                                               ; preds = %1
  call void @llvm.lifetime.end.p0(i64 4, ptr %3) #27
  ret void
}

; Function Attrs: inlinehint nounwind sspstrong uwtable
define internal i32 @rb_fork() #1 {
  %1 = call i32 @fork() #27
  ret i32 %1
}

; Function Attrs: nounwind sspstrong uwtable
define internal void @disable_child_handler_before_fork(ptr noundef %0) #0 {
  %2 = alloca ptr, align 8
  %3 = alloca i32, align 4
  %4 = alloca %struct.__sigset_t, align 8
  %5 = alloca i32, align 4
  store ptr %0, ptr %2, align 8, !tbaa !148
  call void @llvm.lifetime.start.p0(i64 4, ptr %3) #27
  call void @llvm.lifetime.start.p0(i64 128, ptr %4) #27
  %6 = call i32 @sigfillset(ptr noundef %4) #27
  store i32 %6, ptr %3, align 4, !tbaa !34
  %7 = load i32, ptr %3, align 4, !tbaa !34
  %8 = icmp eq i32 %7, -1
  br i1 %8, label %9, label %16

9:                                                ; preds = %1
  br label %10

10:                                               ; preds = %9
  call void @llvm.lifetime.start.p0(i64 4, ptr %5) #27
  %11 = call ptr @rb_errno_ptr()
  %12 = load i32, ptr %11, align 4, !tbaa !34
  store i32 %12, ptr %5, align 4, !tbaa !34
  %13 = load i32, ptr %5, align 4, !tbaa !34
  call void @rb_syserr_fail(i32 noundef %13, ptr noundef @.str.209) #30
  unreachable

14:                                               ; No predecessors!
  br label %15

15:                                               ; preds = %14
  br label %16

16:                                               ; preds = %15, %1
  %17 = load ptr, ptr %2, align 8, !tbaa !148
  %18 = getelementptr inbounds nuw %struct.child_handler_disabler_state, ptr %17, i32 0, i32 0
  %19 = call i32 @pthread_sigmask(i32 noundef 2, ptr noundef %4, ptr noundef %18) #27
  store i32 %19, ptr %3, align 4, !tbaa !34
  %20 = load i32, ptr %3, align 4, !tbaa !34
  %21 = icmp ne i32 %20, 0
  br i1 %21, label %22, label %24

22:                                               ; preds = %16
  %23 = load i32, ptr %3, align 4, !tbaa !34
  call void @rb_syserr_fail(i32 noundef %23, ptr noundef @.str.210) #30
  unreachable

24:                                               ; preds = %16
  call void @llvm.lifetime.end.p0(i64 128, ptr %4) #27
  call void @llvm.lifetime.end.p0(i64 4, ptr %3) #27
  ret void
}

; Function Attrs: nounwind sspstrong uwtable
define internal void @before_fork_ruby() #0 {
  call void @rb_gc_before_fork()
  call void @before_exec()
  ret void
}

; Function Attrs: nounwind sspstrong uwtable
define hidden i32 @rb_fork_ruby(ptr noundef %0) #0 {
  %2 = alloca ptr, align 8
  %3 = alloca %struct.rb_process_status, align 4
  %4 = alloca i32, align 4
  %5 = alloca i32, align 4
  %6 = alloca i32, align 4
  %7 = alloca %struct.child_handler_disabler_state, align 8
  store ptr %0, ptr %2, align 8, !tbaa !60
  call void @llvm.lifetime.start.p0(i64 12, ptr %3) #27
  call void @llvm.memset.p0.i64(ptr align 4 %3, i8 0, i64 12, i1 false)
  call void @llvm.lifetime.start.p0(i64 4, ptr %4) #27
  call void @llvm.lifetime.start.p0(i64 4, ptr %5) #27
  store i32 1, ptr %5, align 4, !tbaa !34
  call void @llvm.lifetime.start.p0(i64 4, ptr %6) #27
  call void @llvm.lifetime.start.p0(i64 128, ptr %7) #27
  br label %8

8:                                                ; preds = %30, %1
  %9 = load i64, ptr @rb_stdout, align 8, !tbaa !35
  %10 = call i64 @rb_io_flush(i64 noundef %9)
  %11 = load i64, ptr @rb_stderr, align 8, !tbaa !35
  %12 = call i64 @rb_io_flush(i64 noundef %11)
  call void @before_fork_ruby()
  call void @rb_thread_acquire_fork_lock()
  call void @disable_child_handler_before_fork(ptr noundef %7)
  %13 = call i32 @rb_fork()
  store i32 %13, ptr %4, align 4, !tbaa !34
  %14 = getelementptr inbounds nuw %struct.rb_process_status, ptr %3, i32 0, i32 0
  store i32 %13, ptr %14, align 4, !tbaa !38
  %15 = call ptr @rb_errno_ptr()
  %16 = load i32, ptr %15, align 4, !tbaa !34
  store i32 %16, ptr %6, align 4, !tbaa !34
  %17 = getelementptr inbounds nuw %struct.rb_process_status, ptr %3, i32 0, i32 2
  store i32 %16, ptr %17, align 4, !tbaa !41
  call void @disable_child_handler_fork_parent(ptr noundef %7)
  call void @rb_thread_release_fork_lock()
  %18 = load i32, ptr %4, align 4, !tbaa !34
  %19 = icmp eq i32 %18, 0
  br i1 %19, label %20, label %21

20:                                               ; preds = %8
  call void @rb_thread_reset_fork_lock()
  br label %21

21:                                               ; preds = %20, %8
  %22 = load i32, ptr %4, align 4, !tbaa !34
  call void @after_fork_ruby(i32 noundef %22)
  br label %23

23:                                               ; preds = %21
  %24 = load i32, ptr %4, align 4, !tbaa !34
  %25 = icmp slt i32 %24, 0
  br i1 %25, label %26, label %30

26:                                               ; preds = %23
  %27 = load i32, ptr %6, align 4, !tbaa !34
  %28 = call i32 @handle_fork_error(i32 noundef %27, ptr noundef %3, ptr noundef null, ptr noundef %5)
  %29 = icmp eq i32 %28, 0
  br label %30

30:                                               ; preds = %26, %23
  %31 = phi i1 [ false, %23 ], [ %29, %26 ]
  br i1 %31, label %8, label %32, !llvm.loop !147

32:                                               ; preds = %30
  %33 = load ptr, ptr %2, align 8, !tbaa !60
  %34 = icmp ne ptr %33, null
  br i1 %34, label %35, label %39

35:                                               ; preds = %32
  %36 = getelementptr inbounds nuw %struct.rb_process_status, ptr %3, i32 0, i32 1
  %37 = load i32, ptr %36, align 4, !tbaa !40
  %38 = load ptr, ptr %2, align 8, !tbaa !60
  store i32 %37, ptr %38, align 4, !tbaa !34
  br label %39

39:                                               ; preds = %35, %32
  %40 = load i32, ptr %4, align 4, !tbaa !34
  call void @llvm.lifetime.end.p0(i64 128, ptr %7) #27
  call void @llvm.lifetime.end.p0(i64 4, ptr %6) #27
  call void @llvm.lifetime.end.p0(i64 4, ptr %5) #27
  call void @llvm.lifetime.end.p0(i64 4, ptr %4) #27
  call void @llvm.lifetime.end.p0(i64 12, ptr %3) #27
  ret i32 %40
}