; Function Attrs: nounwind sspstrong uwtable
define hidden i32 @rb_fork_ruby(ptr noundef writeonly captures(address_is_null) %0) local_unnamed_addr #1 {
  %2 = alloca i32, align 4
  %3 = alloca %struct.__sigset_t, align 8
  %4 = alloca i32, align 4
  %5 = alloca %struct.child_handler_disabler_state, align 8
  call void @llvm.lifetime.start.p0(i64 4, ptr nonnull %4)
  store i32 1, ptr %4, align 4, !tbaa !60
  call void @llvm.lifetime.start.p0(i64 128, ptr nonnull %5) #27
  %6 = load i64, ptr @rb_stdout, align 8, !tbaa !43
  %7 = tail call i64 @rb_io_flush(i64 noundef %6) #27
  %8 = load i64, ptr @rb_stderr, align 8, !tbaa !43
  %9 = tail call i64 @rb_io_flush(i64 noundef %8) #27
  tail call void @rb_gc_before_fork() #27
  tail call void @rb_thread_stop_timer_thread() #27
  tail call void @rb_thread_acquire_fork_lock() #27
  call void @llvm.lifetime.start.p0(i64 128, ptr nonnull %3) #27
  %10 = call i32 @sigfillset(ptr noundef nonnull %3) #27
  %11 = icmp eq i32 %10, -1
  br i1 %11, label %._crit_edge, label %.lr.ph

._crit_edge:                                      ; preds = %handle_fork_error.exit, %1
  %12 = call ptr @rb_errno_ptr() #27
  %13 = load i32, ptr %12, align 4, !tbaa !60
  call void @rb_syserr_fail(i32 noundef %13, ptr noundef nonnull @.str.209) #29
  unreachable

.lr.ph:                                           ; preds = %1, %handle_fork_error.exit
  %14 = call i32 @pthread_sigmask(i32 noundef 2, ptr noundef nonnull %3, ptr noundef nonnull %5) #27
  %.not.i = icmp eq i32 %14, 0
  br i1 %.not.i, label %disable_child_handler_before_fork.exit, label %15

15:                                               ; preds = %.lr.ph
  call void @rb_syserr_fail(i32 noundef %14, ptr noundef nonnull @.str.210) #29
  unreachable

disable_child_handler_before_fork.exit:           ; preds = %.lr.ph
  call void @llvm.lifetime.end.p0(i64 128, ptr nonnull %3) #27
  %16 = call i32 @fork() #27
  %17 = call ptr @rb_errno_ptr() #27
  %18 = load i32, ptr %17, align 4, !tbaa !60
  %19 = call i32 @pthread_sigmask(i32 noundef 2, ptr noundef nonnull %5, ptr noundef null) #27
  %.not.i9 = icmp eq i32 %19, 0
  br i1 %.not.i9, label %disable_child_handler_fork_parent.exit, label %20

20:                                               ; preds = %disable_child_handler_before_fork.exit
  call void @rb_syserr_fail(i32 noundef %19, ptr noundef nonnull @.str.210) #29
  unreachable

disable_child_handler_fork_parent.exit:           ; preds = %disable_child_handler_before_fork.exit
  call void @rb_thread_release_fork_lock() #27
  %21 = icmp eq i32 %16, 0
  br i1 %21, label %.thread, label %22

.thread:                                          ; preds = %disable_child_handler_fork_parent.exit
  call void @rb_thread_reset_fork_lock() #27
  call void @rb_gc_after_fork(i32 noundef 0) #27
  store i32 0, ptr @cached_pid, align 4, !tbaa !60
  call void @rb_thread_atfork() #27
  br label %.critedge

22:                                               ; preds = %disable_child_handler_fork_parent.exit
  call void @rb_gc_after_fork(i32 noundef %16) #27
  call void @rb_thread_reset_timer_thread() #27
  call void @rb_thread_start_timer_thread() #27
  %23 = icmp slt i32 %16, 0
  br i1 %23, label %24, label %.critedge

24:                                               ; preds = %22
  call void @llvm.lifetime.start.p0(i64 4, ptr nonnull %2) #27
  store i32 0, ptr %2, align 4, !tbaa !60
  switch i32 %18, label %handle_fork_error.exit.thread [
    i32 12, label %25
    i32 11, label %31
  ]

25:                                               ; preds = %24
  %.0..0..0. = load volatile i32, ptr %4, align 4, !tbaa !60
  %26 = add i32 %.0..0..0., -1
  store volatile i32 %26, ptr %4, align 4, !tbaa !60
  %27 = icmp sgt i32 %.0..0..0., 0
  br i1 %27, label %28, label %handle_fork_error.exit.thread

28:                                               ; preds = %25
  %29 = call i32 @rb_during_gc() #28
  %.not17.i = icmp eq i32 %29, 0
  br i1 %.not17.i, label %30, label %handle_fork_error.exit.thread

30:                                               ; preds = %28
  call void @rb_gc() #27
  br label %handle_fork_error.exit

31:                                               ; preds = %24
  %32 = call i64 @rb_protect(ptr noundef nonnull @rb_thread_sleep_that_takes_VALUE_as_sole_argument, i64 noundef 3, ptr noundef nonnull %2) #27
  %33 = load i32, ptr %2, align 4, !tbaa !60
  %.not.i10 = icmp eq i32 %33, 0
  br i1 %.not.i10, label %handle_fork_error.exit, label %handle_fork_error.exit.thread

handle_fork_error.exit.thread:                    ; preds = %28, %25, %24, %31
  %.sroa.4.3.ph = phi i32 [ 0, %25 ], [ 0, %28 ], [ 0, %24 ], [ %33, %31 ]
  call void @llvm.lifetime.end.p0(i64 4, ptr nonnull %2) #27
  br label %.critedge

handle_fork_error.exit:                           ; preds = %30, %31
  call void @llvm.lifetime.end.p0(i64 4, ptr nonnull %2) #27
  %34 = load i64, ptr @rb_stdout, align 8, !tbaa !43
  %35 = call i64 @rb_io_flush(i64 noundef %34) #27
  %36 = load i64, ptr @rb_stderr, align 8, !tbaa !43
  %37 = call i64 @rb_io_flush(i64 noundef %36) #27
  call void @rb_gc_before_fork() #27
  call void @rb_thread_stop_timer_thread() #27
  call void @rb_thread_acquire_fork_lock() #27
  call void @llvm.lifetime.start.p0(i64 128, ptr nonnull %3) #27
  %38 = call i32 @sigfillset(ptr noundef nonnull %3) #27
  %39 = icmp eq i32 %38, -1
  br i1 %39, label %._crit_edge, label %.lr.ph, !llvm.loop !200

.critedge:                                        ; preds = %22, %handle_fork_error.exit.thread, %.thread
  %.sroa.4.1 = phi i32 [ 0, %.thread ], [ %.sroa.4.3.ph, %handle_fork_error.exit.thread ], [ 0, %22 ]
  %.not = icmp eq ptr %0, null
  br i1 %.not, label %41, label %40

40:                                               ; preds = %.critedge
  store i32 %.sroa.4.1, ptr %0, align 4, !tbaa !60
  br label %41

41:                                               ; preds = %40, %.critedge
  call void @llvm.lifetime.end.p0(i64 128, ptr nonnull %5) #27
  call void @llvm.lifetime.end.p0(i64 4, ptr nonnull %4)
  ret i32 %16
}